#include <math.h>
#include <stdio.h>
#include <stdlib.h>
#include <string.h>

void f(char *p1,char *p2)
{
     char *p=p1,*q=p2;
     for(;p1<p2;p1++,p2--)
     if(*p1!=*p2) break;
     if(p1>=p2) {for(;p<=q;p++) printf("%c",*p);printf("\n");}
}
int main(int argc, char *argv[])
{
  char a[500];
  int i,j;
  char *p,*q;
  scanf("%s",a);
  for(i=1;i<=strlen(a)-1;i++)
  for(j=0;j<strlen(a)-i;j++)
  {p=a+j;q=a+i+j;f(p,q);}
  return 0;
}
