; ModuleID = '49/935.c'
source_filename = "49/935.c"
target datalayout = "e-m:e-p270:32:32-p271:32:32-p272:64:64-i64:64-f80:128-n8:16:32:64-S128"
target triple = "x86_64-pc-linux-gnu"

@.str = private unnamed_addr constant [3 x i8] c"%c\00", align 1
@.str.1 = private unnamed_addr constant [2 x i8] c"\0A\00", align 1
@.str.2 = private unnamed_addr constant [3 x i8] c"%s\00", align 1

; Function Attrs: noinline nounwind uwtable
define dso_local void @f(i8* %0, i8* %1) #0 {
  %3 = alloca i8*, align 8
  %4 = alloca i8*, align 8
  %5 = alloca i8*, align 8
  %6 = alloca i8*, align 8
  store i8* %0, i8** %3, align 8
  store i8* %1, i8** %4, align 8
  %7 = load i8*, i8** %3, align 8
  store i8* %7, i8** %5, align 8
  %8 = load i8*, i8** %4, align 8
  store i8* %8, i8** %6, align 8
  br label %9

9:                                                ; preds = %23, %2
  %10 = load i8*, i8** %3, align 8
  %11 = load i8*, i8** %4, align 8
  %12 = icmp ult i8* %10, %11
  br i1 %12, label %13, label %28

13:                                               ; preds = %9
  %14 = load i8*, i8** %3, align 8
  %15 = load i8, i8* %14, align 1
  %16 = sext i8 %15 to i32
  %17 = load i8*, i8** %4, align 8
  %18 = load i8, i8* %17, align 1
  %19 = sext i8 %18 to i32
  %20 = icmp ne i32 %16, %19
  br i1 %20, label %21, label %22

21:                                               ; preds = %13
  br label %28

22:                                               ; preds = %13
  br label %23

23:                                               ; preds = %22
  %24 = load i8*, i8** %3, align 8
  %25 = getelementptr inbounds i8, i8* %24, i32 1
  store i8* %25, i8** %3, align 8
  %26 = load i8*, i8** %4, align 8
  %27 = getelementptr inbounds i8, i8* %26, i32 -1
  store i8* %27, i8** %4, align 8
  br label %9

28:                                               ; preds = %21, %9
  %29 = load i8*, i8** %3, align 8
  %30 = load i8*, i8** %4, align 8
  %31 = icmp uge i8* %29, %30
  br i1 %31, label %32, label %47

32:                                               ; preds = %28
  br label %33

33:                                               ; preds = %42, %32
  %34 = load i8*, i8** %5, align 8
  %35 = load i8*, i8** %6, align 8
  %36 = icmp ule i8* %34, %35
  br i1 %36, label %37, label %45

37:                                               ; preds = %33
  %38 = load i8*, i8** %5, align 8
  %39 = load i8, i8* %38, align 1
  %40 = sext i8 %39 to i32
  %41 = call i32 (i8*, ...) @printf(i8* getelementptr inbounds ([3 x i8], [3 x i8]* @.str, i64 0, i64 0), i32 %40)
  br label %42

42:                                               ; preds = %37
  %43 = load i8*, i8** %5, align 8
  %44 = getelementptr inbounds i8, i8* %43, i32 1
  store i8* %44, i8** %5, align 8
  br label %33

45:                                               ; preds = %33
  %46 = call i32 (i8*, ...) @printf(i8* getelementptr inbounds ([2 x i8], [2 x i8]* @.str.1, i64 0, i64 0))
  br label %47

47:                                               ; preds = %45, %28
  ret void
}

declare dso_local i32 @printf(i8*, ...) #1

; Function Attrs: noinline nounwind uwtable
define dso_local i32 @main(i32 %0, i8** %1) #0 {
  %3 = alloca i32, align 4
  %4 = alloca i32, align 4
  %5 = alloca i8**, align 8
  %6 = alloca [500 x i8], align 16
  %7 = alloca i32, align 4
  %8 = alloca i32, align 4
  %9 = alloca i8*, align 8
  %10 = alloca i8*, align 8
  store i32 0, i32* %3, align 4
  store i32 %0, i32* %4, align 4
  store i8** %1, i8*** %5, align 8
  %11 = getelementptr inbounds [500 x i8], [500 x i8]* %6, i64 0, i64 0
  %12 = call i32 (i8*, ...) @__isoc99_scanf(i8* getelementptr inbounds ([3 x i8], [3 x i8]* @.str.2, i64 0, i64 0), i8* %11)
  store i32 1, i32* %7, align 4
  br label %13

13:                                               ; preds = %48, %2
  %14 = load i32, i32* %7, align 4
  %15 = sext i32 %14 to i64
  %16 = getelementptr inbounds [500 x i8], [500 x i8]* %6, i64 0, i64 0
  %17 = call i64 @strlen(i8* %16) #3
  %18 = sub i64 %17, 1
  %19 = icmp ule i64 %15, %18
  br i1 %19, label %20, label %51

20:                                               ; preds = %13
  store i32 0, i32* %8, align 4
  br label %21

21:                                               ; preds = %44, %20
  %22 = load i32, i32* %8, align 4
  %23 = sext i32 %22 to i64
  %24 = getelementptr inbounds [500 x i8], [500 x i8]* %6, i64 0, i64 0
  %25 = call i64 @strlen(i8* %24) #3
  %26 = load i32, i32* %7, align 4
  %27 = sext i32 %26 to i64
  %28 = sub i64 %25, %27
  %29 = icmp ult i64 %23, %28
  br i1 %29, label %30, label %47

30:                                               ; preds = %21
  %31 = getelementptr inbounds [500 x i8], [500 x i8]* %6, i64 0, i64 0
  %32 = load i32, i32* %8, align 4
  %33 = sext i32 %32 to i64
  %34 = getelementptr inbounds i8, i8* %31, i64 %33
  store i8* %34, i8** %9, align 8
  %35 = getelementptr inbounds [500 x i8], [500 x i8]* %6, i64 0, i64 0
  %36 = load i32, i32* %7, align 4
  %37 = sext i32 %36 to i64
  %38 = getelementptr inbounds i8, i8* %35, i64 %37
  %39 = load i32, i32* %8, align 4
  %40 = sext i32 %39 to i64
  %41 = getelementptr inbounds i8, i8* %38, i64 %40
  store i8* %41, i8** %10, align 8
  %42 = load i8*, i8** %9, align 8
  %43 = load i8*, i8** %10, align 8
  call void @f(i8* %42, i8* %43)
  br label %44

44:                                               ; preds = %30
  %45 = load i32, i32* %8, align 4
  %46 = add nsw i32 %45, 1
  store i32 %46, i32* %8, align 4
  br label %21

47:                                               ; preds = %21
  br label %48

48:                                               ; preds = %47
  %49 = load i32, i32* %7, align 4
  %50 = add nsw i32 %49, 1
  store i32 %50, i32* %7, align 4
  br label %13

51:                                               ; preds = %13
  ret i32 0
}

declare dso_local i32 @__isoc99_scanf(i8*, ...) #1

; Function Attrs: nounwind readonly
declare dso_local i64 @strlen(i8*) #2


!llvm.module.flags = !{!0}
!llvm.ident = !{!1}

!0 = !{i32 1, !"wchar_size", i32 4}
!1 = !{!"clang version 10.0.0-4ubuntu1 "}
